target datalayout = "e-m:e-p270:32:32-p271:32:32-p272:64:64-i64:64-i128:128-f80:128-n8:16:32:64-S128"
target triple = "x86_64-unknown-linux-gnu"

%struct.E1000State_st = type { %struct.PCIDevice, ptr, %struct.NICConf, %struct.MemoryRegion, %struct.MemoryRegion, [32768 x i32], [32 x i16], [64 x i16], i32, i32, %struct.e1000_tx, %struct.anon, ptr, ptr, i8, i8, i32, ptr, i32, i8, i8, %struct.e1000x_txd_props }
%struct.PCIDevice = type { %struct.DeviceState, i8, i8, ptr, ptr, ptr, ptr, ptr, i32, %struct.PCIReqIDCache, [64 x i8], [7 x %struct.PCIIORegion], %struct.AddressSpace, %struct.MemoryRegion, %struct.MemoryRegion, ptr, ptr, [3 x ptr], i8, i8, i32, i8, i32, ptr, ptr, ptr, ptr, ptr, ptr, %struct.MemoryRegion, %struct.MemoryRegion, %struct.MemoryRegion, ptr, i8, i32, i8, %struct.PCIExpressDevice, ptr, ptr, i32, i8, %struct.MemoryRegion, i32, ptr, ptr, ptr, ptr, ptr, i32 }
%struct.DeviceState = type { %struct.Object, ptr, ptr, i8, i8, i64, ptr, i32, i8, ptr, %struct.NamedGPIOListHead, %struct.NamedClockListHead, %struct.BusStateHead, i32, i32, i32, %struct.ResettableState, ptr, %struct.MemReentrancyGuard }
%struct.Object = type { ptr, ptr, ptr, i32, ptr }
%struct.NamedGPIOListHead = type { ptr }
%struct.NamedClockListHead = type { ptr }
%struct.BusStateHead = type { ptr }
%struct.ResettableState = type { i32, i8, i8 }
%struct.MemReentrancyGuard = type { i8 }
%struct.PCIReqIDCache = type { ptr, i32 }
%struct.PCIIORegion = type { i64, i64, i8, ptr, ptr }
%struct.AddressSpace = type { %struct.rcu_head, ptr, ptr, ptr, i32, i32, ptr, %union.anon, %union.anon.0 }
%struct.rcu_head = type { ptr, ptr }
%union.anon = type { %struct.QTailQLink }
%struct.QTailQLink = type { ptr, ptr }
%union.anon.0 = type { %struct.QTailQLink }
%struct.PCIExpressDevice = type { i8, i8, i8, i16, %struct.PCIEAERLog, i16, i16, i16, %struct.PCIESriovPF, %struct.PCIESriovVF }
%struct.PCIEAERLog = type { i16, i16, ptr }
%struct.PCIESriovPF = type { i16, [7 x i8], ptr, ptr }
%struct.PCIESriovVF = type { ptr, i16 }
%struct.NICConf = type { %struct.MACAddr, %struct.NICPeers, i32 }
%struct.MACAddr = type { [6 x i8] }
%struct.NICPeers = type { [1024 x ptr], i32 }
%struct.MemoryRegion = type { %struct.Object, i8, i8, i8, i8, i8, i8, i8, i8, i8, i8, ptr, ptr, ptr, ptr, ptr, ptr, i32, i128, i64, ptr, i64, i8, i8, i8, i8, i8, ptr, i64, i32, %union.anon.1, %union.anon.2, %union.anon.3, ptr, i32, ptr, ptr, i8 }
%union.anon.1 = type { %struct.QTailQLink }
%union.anon.2 = type { %struct.QTailQLink }
%union.anon.3 = type { %struct.QTailQLink }
%struct.e1000_tx = type { [256 x i8], [4 x i8], [4 x i8], [65536 x i8], i16, i8, i8, i8, %struct.e1000x_txd_props, %struct.e1000x_txd_props, i16, i8 }
%struct.anon = type { i32, i16, i16, i16, i32 }
%struct.e1000x_txd_props = type { i8, i8, i16, i8, i8, i16, i32, i8, i16, i8, i8, i8 }

@.str.1 = private unnamed_addr constant [11 x i8] c"pci-device\00", align 1
@.str.15 = private unnamed_addr constant [106 x i8] c"/home/dtcxzyw/WorkSpace/Projects/compilers/llvm-opt-benchmark/bench/qemu/qemu/include/hw/pci/pci_device.h\00", align 1
@__func__.PCI_DEVICE = private unnamed_addr constant [11 x i8] c"PCI_DEVICE\00", align 1

; Function Attrs: nounwind sspstrong uwtable
define internal void @mit_update_delay(ptr noundef %curr, i32 noundef %value) #0 {
entry:
  %curr.addr = alloca ptr, align 8
  %value.addr = alloca i32, align 4
  store ptr %curr, ptr %curr.addr, align 8
  store i32 %value, ptr %value.addr, align 4
  %0 = load i32, ptr %value.addr, align 4
  %tobool = icmp ne i32 %0, 0
  br i1 %tobool, label %land.lhs.true, label %if.end

land.lhs.true:                                    ; preds = %entry
  %1 = load ptr, ptr %curr.addr, align 8
  %2 = load i32, ptr %1, align 4
  %cmp = icmp eq i32 %2, 0
  br i1 %cmp, label %if.then, label %lor.lhs.false

lor.lhs.false:                                    ; preds = %land.lhs.true
  %3 = load i32, ptr %value.addr, align 4
  %4 = load ptr, ptr %curr.addr, align 8
  %5 = load i32, ptr %4, align 4
  %cmp1 = icmp ult i32 %3, %5
  br i1 %cmp1, label %if.then, label %if.end

if.then:                                          ; preds = %lor.lhs.false, %land.lhs.true
  %6 = load i32, ptr %value.addr, align 4
  %7 = load ptr, ptr %curr.addr, align 8
  store i32 %6, ptr %7, align 4
  br label %if.end

if.end:                                           ; preds = %if.then, %lor.lhs.false, %entry
  ret void
}

; Function Attrs: nounwind sspstrong uwtable
define internal ptr @PCI_DEVICE(ptr noundef %obj) #0 {
entry:
  %obj.addr = alloca ptr, align 8
  store ptr %obj, ptr %obj.addr, align 8
  %0 = load ptr, ptr %obj.addr, align 8
  %call = call ptr @object_dynamic_cast_assert(ptr noundef %0, ptr noundef @.str.1, ptr noundef @.str.15, i32 noundef 10, ptr noundef @__func__.PCI_DEVICE)
  ret ptr %call
}

; Function Attrs: nounwind sspstrong uwtable
define internal void @set_interrupt_cause(ptr noundef %s, i32 noundef %index, i32 noundef %val) #0 {
entry:
  %s.addr = alloca ptr, align 8
  %index.addr = alloca i32, align 4
  %val.addr = alloca i32, align 4
  %d = alloca ptr, align 8
  %pending_ints = alloca i32, align 4
  %mit_delay = alloca i32, align 4
  store ptr %s, ptr %s.addr, align 8
  store i32 %index, ptr %index.addr, align 4
  store i32 %val, ptr %val.addr, align 4
  %0 = load ptr, ptr %s.addr, align 8
  %call = call ptr @PCI_DEVICE(ptr noundef %0)
  store ptr %call, ptr %d, align 8
  %1 = load i32, ptr %val.addr, align 4
  %2 = load ptr, ptr %s.addr, align 8
  %mac_reg = getelementptr inbounds %struct.E1000State_st, ptr %2, i32 0, i32 5
  %arrayidx = getelementptr [32768 x i32], ptr %mac_reg, i64 0, i64 48
  store i32 %1, ptr %arrayidx, align 16
  %3 = load i32, ptr %val.addr, align 4
  %4 = load ptr, ptr %s.addr, align 8
  %mac_reg1 = getelementptr inbounds %struct.E1000State_st, ptr %4, i32 0, i32 5
  %arrayidx2 = getelementptr [32768 x i32], ptr %mac_reg1, i64 0, i64 50
  store i32 %3, ptr %arrayidx2, align 8
  %5 = load ptr, ptr %s.addr, align 8
  %mac_reg3 = getelementptr inbounds %struct.E1000State_st, ptr %5, i32 0, i32 5
  %arrayidx4 = getelementptr [32768 x i32], ptr %mac_reg3, i64 0, i64 52
  %6 = load i32, ptr %arrayidx4, align 16
  %7 = load ptr, ptr %s.addr, align 8
  %mac_reg5 = getelementptr inbounds %struct.E1000State_st, ptr %7, i32 0, i32 5
  %arrayidx6 = getelementptr [32768 x i32], ptr %mac_reg5, i64 0, i64 48
  %8 = load i32, ptr %arrayidx6, align 16
  %and = and i32 %6, %8
  store i32 %and, ptr %pending_ints, align 4
  %9 = load ptr, ptr %s.addr, align 8
  %mit_irq_level = getelementptr inbounds %struct.E1000State_st, ptr %9, i32 0, i32 15
  %10 = load i8, ptr %mit_irq_level, align 1
  %tobool = trunc i8 %10 to i1
  br i1 %tobool, label %if.end35, label %land.lhs.true

land.lhs.true:                                    ; preds = %entry
  %11 = load i32, ptr %pending_ints, align 4
  %tobool7 = icmp ne i32 %11, 0
  br i1 %tobool7, label %if.then, label %if.end35

if.then:                                          ; preds = %land.lhs.true
  %12 = load ptr, ptr %s.addr, align 8
  %mit_timer_on = getelementptr inbounds %struct.E1000State_st, ptr %12, i32 0, i32 14
  %13 = load i8, ptr %mit_timer_on, align 8
  %tobool8 = trunc i8 %13 to i1
  br i1 %tobool8, label %if.then9, label %if.end

if.then9:                                         ; preds = %if.then
  br label %return

if.end:                                           ; preds = %if.then
  store i32 0, ptr %mit_delay, align 4
  %14 = load ptr, ptr %s.addr, align 8
  %mit_ide = getelementptr inbounds %struct.E1000State_st, ptr %14, i32 0, i32 16
  %15 = load i32, ptr %mit_ide, align 4
  %tobool10 = icmp ne i32 %15, 0
  br i1 %tobool10, label %land.lhs.true11, label %if.end17

land.lhs.true11:                                  ; preds = %if.end
  %16 = load i32, ptr %pending_ints, align 4
  %and12 = and i32 %16, 3
  %tobool13 = icmp ne i32 %and12, 0
  br i1 %tobool13, label %if.then14, label %if.end17

if.then14:                                        ; preds = %land.lhs.true11
  %17 = load ptr, ptr %s.addr, align 8
  %mac_reg15 = getelementptr inbounds %struct.E1000State_st, ptr %17, i32 0, i32 5
  %arrayidx16 = getelementptr [32768 x i32], ptr %mac_reg15, i64 0, i64 3595
  %18 = load i32, ptr %arrayidx16, align 4
  %mul = mul i32 %18, 4
  call void @mit_update_delay(ptr noundef %mit_delay, i32 noundef %mul)
  br label %if.end17

if.end17:                                         ; preds = %if.then14, %land.lhs.true11, %if.end
  %19 = load ptr, ptr %s.addr, align 8
  %mac_reg18 = getelementptr inbounds %struct.E1000State_st, ptr %19, i32 0, i32 5
  %arrayidx19 = getelementptr [32768 x i32], ptr %mac_reg18, i64 0, i64 2568
  %20 = load i32, ptr %arrayidx19, align 16
  %tobool20 = icmp ne i32 %20, 0
  br i1 %tobool20, label %land.lhs.true21, label %if.end28

land.lhs.true21:                                  ; preds = %if.end17
  %21 = load i32, ptr %pending_ints, align 4
  %and22 = and i32 %21, 128
  %tobool23 = icmp ne i32 %and22, 0
  br i1 %tobool23, label %if.then24, label %if.end28

if.then24:                                        ; preds = %land.lhs.true21
  %22 = load ptr, ptr %s.addr, align 8
  %mac_reg25 = getelementptr inbounds %struct.E1000State_st, ptr %22, i32 0, i32 5
  %arrayidx26 = getelementptr [32768 x i32], ptr %mac_reg25, i64 0, i64 2571
  %23 = load i32, ptr %arrayidx26, align 4
  %mul27 = mul i32 %23, 4
  call void @mit_update_delay(ptr noundef %mit_delay, i32 noundef %mul27)
  br label %if.end28

if.end28:                                         ; preds = %if.then24, %land.lhs.true21, %if.end17
  %24 = load ptr, ptr %s.addr, align 8
  %mac_reg29 = getelementptr inbounds %struct.E1000State_st, ptr %24, i32 0, i32 5
  %arrayidx30 = getelementptr [32768 x i32], ptr %mac_reg29, i64 0, i64 49
  %25 = load i32, ptr %arrayidx30, align 4
  call void @mit_update_delay(ptr noundef %mit_delay, i32 noundef %25)
  %26 = load i32, ptr %mit_delay, align 4
  %cmp = icmp ult i32 %26, 500
  br i1 %cmp, label %cond.true, label %cond.false

cond.true:                                        ; preds = %if.end28
  br label %cond.end

cond.false:                                       ; preds = %if.end28
  %27 = load i32, ptr %mit_delay, align 4
  br label %cond.end

cond.end:                                         ; preds = %cond.false, %cond.true
  %cond = phi i32 [ 500, %cond.true ], [ %27, %cond.false ]
  store i32 %cond, ptr %mit_delay, align 4
  %28 = load ptr, ptr %s.addr, align 8
  %mit_timer_on31 = getelementptr inbounds %struct.E1000State_st, ptr %28, i32 0, i32 14
  store i8 1, ptr %mit_timer_on31, align 8
  %29 = load ptr, ptr %s.addr, align 8
  %mit_timer = getelementptr inbounds %struct.E1000State_st, ptr %29, i32 0, i32 13
  %30 = load ptr, ptr %mit_timer, align 16
  %call32 = call i64 @qemu_clock_get_ns(i32 noundef 1)
  %31 = load i32, ptr %mit_delay, align 4
  %mul33 = mul i32 %31, 256
  %conv = zext i32 %mul33 to i64
  %add = add i64 %call32, %conv
  call void @timer_mod(ptr noundef %30, i64 noundef %add)
  %32 = load ptr, ptr %s.addr, align 8
  %mit_ide34 = getelementptr inbounds %struct.E1000State_st, ptr %32, i32 0, i32 16
  store i32 0, ptr %mit_ide34, align 4
  br label %if.end35

if.end35:                                         ; preds = %cond.end, %land.lhs.true, %entry
  %33 = load i32, ptr %pending_ints, align 4
  %cmp36 = icmp ne i32 %33, 0
  %34 = load ptr, ptr %s.addr, align 8
  %mit_irq_level38 = getelementptr inbounds %struct.E1000State_st, ptr %34, i32 0, i32 15
  %frombool = zext i1 %cmp36 to i8
  store i8 %frombool, ptr %mit_irq_level38, align 1
  %35 = load ptr, ptr %d, align 8
  %36 = load ptr, ptr %s.addr, align 8
  %mit_irq_level39 = getelementptr inbounds %struct.E1000State_st, ptr %36, i32 0, i32 15
  %37 = load i8, ptr %mit_irq_level39, align 1
  %tobool40 = trunc i8 %37 to i1
  %conv41 = zext i1 %tobool40 to i32
  call void @pci_set_irq(ptr noundef %35, i32 noundef %conv41)
  br label %return

return:                                           ; preds = %if.end35, %if.then9
  ret void
}