; Function Attrs: nounwind sspstrong uwtable
define internal fastcc void @set_interrupt_cause(ptr noundef %s, i32 noundef %val) unnamed_addr #0 {
entry:
  %call.i = tail call ptr @object_dynamic_cast_assert(ptr noundef %s, ptr noundef nonnull @.str.1, ptr noundef nonnull @.str.15, i32 noundef 10, ptr noundef nonnull @__func__.PCI_DEVICE) #13
  %arrayidx = getelementptr i8, ptr %s, i64 11568
  store i32 %val, ptr %arrayidx, align 16
  %arrayidx2 = getelementptr i8, ptr %s, i64 11576
  store i32 %val, ptr %arrayidx2, align 8
  %arrayidx4 = getelementptr i8, ptr %s, i64 11584
  %0 = load i32, ptr %arrayidx4, align 16
  %and = and i32 %0, %val
  %mit_irq_level = getelementptr inbounds nuw i8, ptr %s, i64 208537
  %1 = load i8, ptr %mit_irq_level, align 1
  %tobool = trunc i8 %1 to i1
  %tobool.not = xor i1 %tobool, true
  %tobool7 = icmp ne i32 %and, 0
  %or.cond = select i1 %tobool.not, i1 %tobool7, i1 false
  br i1 %or.cond, label %if.then, label %if.end35

if.then:                                          ; preds = %entry
  %mit_timer_on = getelementptr inbounds nuw i8, ptr %s, i64 208536
  %2 = load i8, ptr %mit_timer_on, align 8
  %tobool8 = trunc i8 %2 to i1
  br i1 %tobool8, label %return, label %if.end

if.end:                                           ; preds = %if.then
  %mit_ide = getelementptr inbounds nuw i8, ptr %s, i64 208540
  %3 = load i32, ptr %mit_ide, align 4
  %tobool10.not = icmp eq i32 %3, 0
  %and12 = and i32 %and, 3
  %tobool13.not = icmp eq i32 %and12, 0
  %or.cond21 = select i1 %tobool10.not, i1 true, i1 %tobool13.not
  br i1 %or.cond21, label %if.end17, label %if.then14

if.then14:                                        ; preds = %if.end
  %arrayidx16 = getelementptr i8, ptr %s, i64 25756
  %4 = load i32, ptr %arrayidx16, align 4
  %mul = shl i32 %4, 2
  br label %if.end17

if.end17:                                         ; preds = %if.then14, %if.end
  %mit_delay.0 = phi i32 [ 0, %if.end ], [ %mul, %if.then14 ]
  %arrayidx19 = getelementptr i8, ptr %s, i64 21648
  %5 = load i32, ptr %arrayidx19, align 16
  %tobool20.not = icmp eq i32 %5, 0
  %and22 = and i32 %and, 128
  %tobool23.not = icmp eq i32 %and22, 0
  %or.cond22 = select i1 %tobool20.not, i1 true, i1 %tobool23.not
  br i1 %or.cond22, label %if.end28, label %if.then24

if.then24:                                        ; preds = %if.end17
  %arrayidx26 = getelementptr i8, ptr %s, i64 21660
  %6 = load i32, ptr %arrayidx26, align 4
  %mul27 = shl i32 %6, 2
  %7 = add i32 %mit_delay.0, -1
  %8 = add i32 %mul27, -1
  %or.cond37.not = icmp ult i32 %8, %7
  %spec.select39 = select i1 %or.cond37.not, i32 %mul27, i32 %mit_delay.0
  br label %if.end28

if.end28:                                         ; preds = %if.then24, %if.end17
  %mit_delay.1 = phi i32 [ %mit_delay.0, %if.end17 ], [ %spec.select39, %if.then24 ]
  %arrayidx30 = getelementptr i8, ptr %s, i64 11572
  %9 = load i32, ptr %arrayidx30, align 4
  %10 = add i32 %mit_delay.1, -1
  %11 = add i32 %9, -1
  %or.cond38.not = icmp ult i32 %11, %10
  %mit_delay.4 = select i1 %or.cond38.not, i32 %9, i32 %mit_delay.1
  %cond = tail call i32 @llvm.umax.i32(i32 %mit_delay.4, i32 500)
  store i8 1, ptr %mit_timer_on, align 8
  %mit_timer = getelementptr inbounds nuw i8, ptr %s, i64 208528
  %12 = load ptr, ptr %mit_timer, align 16
  %call32 = tail call i64 @qemu_clock_get_ns(i32 noundef 1) #13
  %mul33 = shl i32 %cond, 8
  %conv = zext i32 %mul33 to i64
  %add = add i64 %call32, %conv
  tail call void @timer_mod(ptr noundef %12, i64 noundef %add) #13
  store i32 0, ptr %mit_ide, align 4
  br label %if.end35

if.end35:                                         ; preds = %if.end28, %entry
  %frombool = zext i1 %tobool7 to i8
  store i8 %frombool, ptr %mit_irq_level, align 1
  %conv41 = zext i1 %tobool7 to i32
  tail call void @pci_set_irq(ptr noundef %call.i, i32 noundef %conv41) #13
  br label %return

return:                                           ; preds = %if.then, %if.end35
  ret void
}